target datalayout = "e-m:e-p270:32:32-p271:32:32-p272:64:64-i64:64-i128:128-f80:128-n8:16:32:64-S128"
target triple = "x86_64-pc-linux-gnu"

%struct.pg_enc2name = type { ptr, i32 }
%struct.pg_wchar_tbl = type { ptr, ptr, ptr, ptr, ptr, ptr, i32 }

@DatabaseEncoding = internal global ptr @pg_enc2name_tbl, align 8
@pg_wchar_table = external constant [0 x %struct.pg_wchar_tbl], align 8

; Function Attrs: nounwind uwtable
define dso_local i32 @GetDatabaseEncoding() #1 {
  %1 = load ptr, ptr @DatabaseEncoding, align 8
  %2 = getelementptr inbounds nuw %struct.pg_enc2name, ptr %1, i32 0, i32 1
  %3 = load i32, ptr %2, align 8
  ret i32 %3
}

; Function Attrs: nounwind uwtable
define dso_local i32 @pg_mblen(ptr noundef %0) #1 {
  %2 = alloca ptr, align 8
  store ptr %0, ptr %2, align 8
  %3 = load ptr, ptr @DatabaseEncoding, align 8
  %4 = getelementptr inbounds nuw %struct.pg_enc2name, ptr %3, i32 0, i32 1
  %5 = load i32, ptr %4, align 8
  %6 = zext i32 %5 to i64
  %7 = getelementptr inbounds nuw [0 x %struct.pg_wchar_tbl], ptr @pg_wchar_table, i64 0, i64 %6
  %8 = getelementptr inbounds nuw %struct.pg_wchar_tbl, ptr %7, i32 0, i32 2
  %9 = load ptr, ptr %8, align 8
  %10 = load ptr, ptr %2, align 8
  %11 = call i32 %9(ptr noundef %10)
  ret i32 %11
}

; Function Attrs: nounwind uwtable
define dso_local i32 @pg_database_encoding_max_length() #1 {
  %1 = call i32 @GetDatabaseEncoding()
  %2 = sext i32 %1 to i64
  %3 = getelementptr inbounds [0 x %struct.pg_wchar_tbl], ptr @pg_wchar_table, i64 0, i64 %2
  %4 = getelementptr inbounds nuw %struct.pg_wchar_tbl, ptr %3, i32 0, i32 6
  %5 = load i32, ptr %4, align 8
  ret i32 %5
}

; Function Attrs: nounwind uwtable
define dso_local i32 @pg_mbstrlen(ptr noundef %0) #1 {
  %2 = alloca i32, align 4
  %3 = alloca ptr, align 8
  %4 = alloca i32, align 4
  %5 = alloca i32, align 4
  store ptr %0, ptr %3, align 8
  call void @llvm.lifetime.start.p0(i64 4, ptr %4) #9
  store i32 0, ptr %4, align 4
  %6 = call i32 @pg_database_encoding_max_length()
  %7 = icmp eq i32 %6, 1
  br i1 %7, label %8, label %12

8:                                                ; preds = %1
  %9 = load ptr, ptr %3, align 8
  %10 = call i64 @strlen(ptr noundef %9) #11
  %11 = trunc i64 %10 to i32
  store i32 %11, ptr %2, align 4
  store i32 1, ptr %5, align 4
  br label %27

12:                                               ; preds = %1
  br label %13

13:                                               ; preds = %17, %12
  %14 = load ptr, ptr %3, align 8
  %15 = load i8, ptr %14, align 1
  %16 = icmp ne i8 %15, 0
  br i1 %16, label %17, label %25

17:                                               ; preds = %13
  %18 = load ptr, ptr %3, align 8
  %19 = call i32 @pg_mblen(ptr noundef %18)
  %20 = load ptr, ptr %3, align 8
  %21 = sext i32 %19 to i64
  %22 = getelementptr inbounds i8, ptr %20, i64 %21
  store ptr %22, ptr %3, align 8
  %23 = load i32, ptr %4, align 4
  %24 = add i32 %23, 1
  store i32 %24, ptr %4, align 4
  br label %13, !llvm.loop !11

25:                                               ; preds = %13
  %26 = load i32, ptr %4, align 4
  store i32 %26, ptr %2, align 4
  store i32 1, ptr %5, align 4
  br label %27

27:                                               ; preds = %25, %8
  call void @llvm.lifetime.end.p0(i64 4, ptr %4) #9
  %28 = load i32, ptr %2, align 4
  ret i32 %28
}