; Function Attrs: nounwind uwtable
define dso_local i32 @pg_mbstrlen(ptr noundef %0) local_unnamed_addr #0 {
  %2 = load ptr, ptr @DatabaseEncoding, align 8
  %3 = getelementptr inbounds nuw i8, ptr %2, i64 8
  %4 = load i32, ptr %3, align 8
  %5 = sext i32 %4 to i64
  %6 = getelementptr inbounds [0 x %struct.pg_wchar_tbl], ptr @pg_wchar_table, i64 0, i64 %5, i32 6
  %7 = load i32, ptr %6, align 8
  %8 = icmp eq i32 %7, 1
  br i1 %8, label %10, label %.preheader

.preheader:                                       ; preds = %1
  %9 = load i8, ptr %0, align 1
  %.not8 = icmp eq i8 %9, 0
  br i1 %.not8, label %.loopexit, label %.lr.ph

10:                                               ; preds = %1
  %11 = tail call i64 @strlen(ptr noundef nonnull dereferenceable(1) %0) #16
  %12 = trunc i64 %11 to i32
  br label %.loopexit

.lr.ph:                                           ; preds = %.preheader, %.lr.ph
  %.010 = phi i32 [ %22, %.lr.ph ], [ 0, %.preheader ]
  %.069 = phi ptr [ %21, %.lr.ph ], [ %0, %.preheader ]
  %13 = load ptr, ptr @DatabaseEncoding, align 8
  %14 = getelementptr inbounds nuw i8, ptr %13, i64 8
  %15 = load i32, ptr %14, align 8
  %16 = zext i32 %15 to i64
  %17 = getelementptr inbounds nuw [0 x %struct.pg_wchar_tbl], ptr @pg_wchar_table, i64 0, i64 %16, i32 2
  %18 = load ptr, ptr %17, align 8
  %19 = tail call i32 %18(ptr noundef nonnull %.069) #13
  %20 = sext i32 %19 to i64
  %21 = getelementptr inbounds i8, ptr %.069, i64 %20
  %22 = add i32 %.010, 1
  %23 = load i8, ptr %21, align 1
  %.not = icmp eq i8 %23, 0
  br i1 %.not, label %.loopexit, label %.lr.ph, !llvm.loop !8

.loopexit:                                        ; preds = %.lr.ph, %.preheader, %10
  %.07 = phi i32 [ %12, %10 ], [ 0, %.preheader ], [ %22, %.lr.ph ]
  ret i32 %.07
}